; Function Attrs: mustprogress nofree norecurse nosync nounwind willreturn memory(argmem: write) uwtable
define noundef nonnull align 4 dereferenceable(64) ptr @_ZN32pxrInternal_v0_24__pxrReserved__10GfMatrix4f8SetScaleEf(ptr noundef nonnull returned writeonly align 4 dereferenceable(64) initializes((0, 64)) %0, float noundef %1) local_unnamed_addr #5 align 2 {
  store float %1, ptr %0, align 4
  %3 = getelementptr inbounds nuw i8, ptr %0, i64 4
  %4 = getelementptr inbounds nuw i8, ptr %0, i64 20
  tail call void @llvm.memset.p0.i64(ptr noundef nonnull align 4 dereferenceable(16) %3, i8 0, i64 16, i1 false)
  store float %1, ptr %4, align 4
  %5 = getelementptr inbounds nuw i8, ptr %0, i64 24
  %6 = getelementptr inbounds nuw i8, ptr %0, i64 40
  tail call void @llvm.memset.p0.i64(ptr noundef nonnull align 4 dereferenceable(16) %5, i8 0, i64 16, i1 false)
  store float %1, ptr %6, align 4
  %7 = getelementptr inbounds nuw i8, ptr %0, i64 44
  %8 = getelementptr inbounds nuw i8, ptr %0, i64 60
  tail call void @llvm.memset.p0.i64(ptr noundef nonnull align 4 dereferenceable(16) %7, i8 0, i64 16, i1 false)
  store float 1.000000e+00, ptr %8, align 4
  ret ptr %0
}